target datalayout = "e-m:e-p270:32:32-p271:32:32-p272:64:64-i64:64-i128:128-f80:128-n8:16:32:64-S128"
target triple = "x86_64-pc-linux-gnu"

%"struct.absl::debugging_internal::State" = type { ptr, ptr, i32, i32, i32, %"struct.absl::debugging_internal::ParseState" }
%"struct.absl::debugging_internal::ParseState" = type { i32, i32, i32, i32 }

; Function Attrs: mustprogress nounwind uwtable
define internal void @_ZN4absl18debugging_internalL6AppendEPNS0_5StateEPKcm(ptr noundef %0, ptr noundef %1, i64 noundef %2) #3 {
  %4 = alloca ptr, align 8
  %5 = alloca ptr, align 8
  %6 = alloca i64, align 8
  %7 = alloca i64, align 8
  %8 = alloca i32, align 4
  store ptr %0, ptr %4, align 8, !tbaa !16
  store ptr %1, ptr %5, align 8, !tbaa !4
  store i64 %2, ptr %6, align 8, !tbaa !9
  call void @llvm.lifetime.start.p0(i64 8, ptr %7) #12
  store i64 0, ptr %7, align 8, !tbaa !9
  br label %9

9:                                                ; preds = %48, %3
  %10 = load i64, ptr %7, align 8, !tbaa !9
  %11 = load i64, ptr %6, align 8, !tbaa !9
  %12 = icmp ult i64 %10, %11
  br i1 %12, label %14, label %13

13:                                               ; preds = %9
  store i32 2, ptr %8, align 4
  br label %51

14:                                               ; preds = %9
  %15 = load ptr, ptr %4, align 8, !tbaa !16
  %16 = getelementptr inbounds nuw %"struct.absl::debugging_internal::State", ptr %15, i32 0, i32 5
  %17 = getelementptr inbounds nuw %"struct.absl::debugging_internal::ParseState", ptr %16, i32 0, i32 1
  %18 = load i32, ptr %17, align 4, !tbaa !12
  %19 = add nsw i32 %18, 1
  %20 = load ptr, ptr %4, align 8, !tbaa !16
  %21 = getelementptr inbounds nuw %"struct.absl::debugging_internal::State", ptr %20, i32 0, i32 2
  %22 = load i32, ptr %21, align 8, !tbaa !19
  %23 = icmp slt i32 %19, %22
  br i1 %23, label %24, label %39

24:                                               ; preds = %14
  %25 = load ptr, ptr %5, align 8, !tbaa !4
  %26 = load i64, ptr %7, align 8, !tbaa !9
  %27 = getelementptr inbounds nuw i8, ptr %25, i64 %26
  %28 = load i8, ptr %27, align 1, !tbaa !11
  %29 = load ptr, ptr %4, align 8, !tbaa !16
  %30 = getelementptr inbounds nuw %"struct.absl::debugging_internal::State", ptr %29, i32 0, i32 1
  %31 = load ptr, ptr %30, align 8, !tbaa !18
  %32 = load ptr, ptr %4, align 8, !tbaa !16
  %33 = getelementptr inbounds nuw %"struct.absl::debugging_internal::State", ptr %32, i32 0, i32 5
  %34 = getelementptr inbounds nuw %"struct.absl::debugging_internal::ParseState", ptr %33, i32 0, i32 1
  %35 = load i32, ptr %34, align 4, !tbaa !12
  %36 = add nsw i32 %35, 1
  store i32 %36, ptr %34, align 4, !tbaa !12
  %37 = sext i32 %35 to i64
  %38 = getelementptr inbounds i8, ptr %31, i64 %37
  store i8 %28, ptr %38, align 1, !tbaa !11
  br label %47

39:                                               ; preds = %14
  %40 = load ptr, ptr %4, align 8, !tbaa !16
  %41 = getelementptr inbounds nuw %"struct.absl::debugging_internal::State", ptr %40, i32 0, i32 2
  %42 = load i32, ptr %41, align 8, !tbaa !19
  %43 = add nsw i32 %42, 1
  %44 = load ptr, ptr %4, align 8, !tbaa !16
  %45 = getelementptr inbounds nuw %"struct.absl::debugging_internal::State", ptr %44, i32 0, i32 5
  %46 = getelementptr inbounds nuw %"struct.absl::debugging_internal::ParseState", ptr %45, i32 0, i32 1
  store i32 %43, ptr %46, align 4, !tbaa !12
  store i32 2, ptr %8, align 4
  br label %51

47:                                               ; preds = %24
  br label %48

48:                                               ; preds = %47
  %49 = load i64, ptr %7, align 8, !tbaa !9
  %50 = add i64 %49, 1
  store i64 %50, ptr %7, align 8, !tbaa !9
  br label %9, !llvm.loop !53

51:                                               ; preds = %39, %13
  call void @llvm.lifetime.end.p0(i64 8, ptr %7) #12
  br label %52

52:                                               ; preds = %51
  %53 = load ptr, ptr %4, align 8, !tbaa !16
  %54 = getelementptr inbounds nuw %"struct.absl::debugging_internal::State", ptr %53, i32 0, i32 5
  %55 = getelementptr inbounds nuw %"struct.absl::debugging_internal::ParseState", ptr %54, i32 0, i32 1
  %56 = load i32, ptr %55, align 4, !tbaa !12
  %57 = load ptr, ptr %4, align 8, !tbaa !16
  %58 = getelementptr inbounds nuw %"struct.absl::debugging_internal::State", ptr %57, i32 0, i32 2
  %59 = load i32, ptr %58, align 8, !tbaa !19
  %60 = icmp slt i32 %56, %59
  br i1 %60, label %61, label %71

61:                                               ; preds = %52
  %62 = load ptr, ptr %4, align 8, !tbaa !16
  %63 = getelementptr inbounds nuw %"struct.absl::debugging_internal::State", ptr %62, i32 0, i32 1
  %64 = load ptr, ptr %63, align 8, !tbaa !18
  %65 = load ptr, ptr %4, align 8, !tbaa !16
  %66 = getelementptr inbounds nuw %"struct.absl::debugging_internal::State", ptr %65, i32 0, i32 5
  %67 = getelementptr inbounds nuw %"struct.absl::debugging_internal::ParseState", ptr %66, i32 0, i32 1
  %68 = load i32, ptr %67, align 4, !tbaa !12
  %69 = sext i32 %68 to i64
  %70 = getelementptr inbounds i8, ptr %64, i64 %69
  store i8 0, ptr %70, align 1, !tbaa !11
  br label %71

71:                                               ; preds = %61, %52
  ret void
}

; Function Attrs: mustprogress nounwind uwtable
define internal noundef zeroext i1 @_ZN4absl18debugging_internalL18MaybeAppendDecimalEPNS0_5StateEi(ptr noundef %0, i32 noundef %1) #3 {
  %3 = alloca ptr, align 8
  %4 = alloca i32, align 4
  %5 = alloca i64, align 8
  %6 = alloca [20 x i8], align 16
  %7 = alloca ptr, align 8
  store ptr %0, ptr %3, align 8, !tbaa !16
  store i32 %1, ptr %4, align 4, !tbaa !24
  call void @llvm.lifetime.start.p0(i64 8, ptr %5) #12
  store i64 20, ptr %5, align 8, !tbaa !9
  call void @llvm.lifetime.start.p0(i64 20, ptr %6) #12
  %8 = load ptr, ptr %3, align 8, !tbaa !16
  %9 = getelementptr inbounds nuw %"struct.absl::debugging_internal::State", ptr %8, i32 0, i32 5
  %10 = getelementptr inbounds nuw %"struct.absl::debugging_internal::ParseState", ptr %9, i32 0, i32 3
  %11 = load i32, ptr %10, align 4
  %12 = lshr i32 %11, 31
  %13 = icmp ne i32 %12, 0
  br i1 %13, label %14, label %43

14:                                               ; preds = %2
  call void @llvm.lifetime.start.p0(i64 8, ptr %7) #12
  %15 = getelementptr inbounds nuw [20 x i8], ptr %6, i64 0, i64 20
  store ptr %15, ptr %7, align 8, !tbaa !4
  br label %16

16:                                               ; preds = %32, %14
  %17 = load i32, ptr %4, align 4, !tbaa !24
  %18 = srem i32 %17, 10
  %19 = add nsw i32 %18, 48
  %20 = trunc i32 %19 to i8
  %21 = load ptr, ptr %7, align 8, !tbaa !4
  %22 = getelementptr inbounds i8, ptr %21, i32 -1
  store ptr %22, ptr %7, align 8, !tbaa !4
  store i8 %20, ptr %22, align 1, !tbaa !11
  %23 = load i32, ptr %4, align 4, !tbaa !24
  %24 = sdiv i32 %23, 10
  store i32 %24, ptr %4, align 4, !tbaa !24
  br label %25

25:                                               ; preds = %16
  %26 = load ptr, ptr %7, align 8, !tbaa !4
  %27 = getelementptr inbounds [20 x i8], ptr %6, i64 0, i64 0
  %28 = icmp ugt ptr %26, %27
  br i1 %28, label %29, label %32

29:                                               ; preds = %25
  %30 = load i32, ptr %4, align 4, !tbaa !24
  %31 = icmp ne i32 %30, 0
  br label %32

32:                                               ; preds = %29, %25
  %33 = phi i1 [ false, %25 ], [ %31, %29 ]
  br i1 %33, label %16, label %34, !llvm.loop !62

34:                                               ; preds = %32
  %35 = load ptr, ptr %3, align 8, !tbaa !16
  %36 = load ptr, ptr %7, align 8, !tbaa !4
  %37 = load ptr, ptr %7, align 8, !tbaa !4
  %38 = getelementptr inbounds [20 x i8], ptr %6, i64 0, i64 0
  %39 = ptrtoint ptr %37 to i64
  %40 = ptrtoint ptr %38 to i64
  %41 = sub i64 %39, %40
  %42 = sub i64 20, %41
  call void @_ZN4absl18debugging_internalL6AppendEPNS0_5StateEPKcm(ptr noundef %35, ptr noundef %36, i64 noundef %42)
  call void @llvm.lifetime.end.p0(i64 8, ptr %7) #12
  br label %43

43:                                               ; preds = %34, %2
  call void @llvm.lifetime.end.p0(i64 20, ptr %6) #12
  call void @llvm.lifetime.end.p0(i64 8, ptr %5) #12
  ret i1 true
}