; Function Attrs: mustprogress nofree norecurse nosync nounwind memory(write, argmem: readwrite, inaccessiblemem: none) uwtable
define internal fastcc void @_ZN4absl18debugging_internalL18MaybeAppendDecimalEPNS0_5StateEi(ptr noundef captures(none) %0, i32 noundef %1) unnamed_addr #9 {
  %3 = alloca [20 x i8], align 16
  call void @llvm.lifetime.start.p0(i64 20, ptr nonnull %3) #14
  %4 = getelementptr inbounds nuw i8, ptr %0, i64 40
  %5 = load i32, ptr %4, align 4
  %.not = icmp sgt i32 %5, -1
  br i1 %.not, label %_ZN4absl18debugging_internalL6AppendEPNS0_5StateEPKcm.exit, label %6

6:                                                ; preds = %2
  %7 = getelementptr inbounds nuw i8, ptr %3, i64 20
  br label %8

8:                                                ; preds = %8, %6
  %.08 = phi i32 [ %1, %6 ], [ %13, %8 ]
  %.0 = phi ptr [ %7, %6 ], [ %12, %8 ]
  %9 = srem i32 %.08, 10
  %10 = trunc nsw i32 %9 to i8
  %11 = add nsw i8 %10, 48
  %12 = getelementptr inbounds i8, ptr %.0, i64 -1
  store i8 %11, ptr %12, align 1, !tbaa !4
  %13 = sdiv i32 %.08, 10
  %14 = icmp ugt ptr %12, %3
  %15 = add i32 %.08, -10
  %16 = icmp ult i32 %15, -19
  %17 = select i1 %14, i1 %16, i1 false
  br i1 %17, label %8, label %18, !llvm.loop !47

18:                                               ; preds = %8
  %19 = ptrtoint ptr %12 to i64
  %20 = ptrtoint ptr %3 to i64
  %.neg = sub i64 %20, %19
  %21 = add i64 %.neg, 20
  %.not.i = icmp eq i64 %21, 0
  br i1 %.not.i, label %.loopexit.i, label %.lr.ph.i

.lr.ph.i:                                         ; preds = %18
  %22 = getelementptr inbounds nuw i8, ptr %0, i64 32
  %23 = getelementptr inbounds nuw i8, ptr %0, i64 16
  %24 = getelementptr inbounds nuw i8, ptr %0, i64 8
  br label %25

25:                                               ; preds = %30, %.lr.ph.i
  %.018.i = phi i64 [ 0, %.lr.ph.i ], [ %36, %30 ]
  %26 = load i32, ptr %22, align 4, !tbaa !23
  %27 = add nsw i32 %26, 1
  %28 = load i32, ptr %23, align 8, !tbaa !14
  %29 = icmp slt i32 %27, %28
  br i1 %29, label %30, label %37

30:                                               ; preds = %25
  %31 = getelementptr inbounds nuw i8, ptr %12, i64 %.018.i
  %32 = load i8, ptr %31, align 1, !tbaa !4
  %33 = load ptr, ptr %24, align 8, !tbaa !13
  store i32 %27, ptr %22, align 4, !tbaa !23
  %34 = sext i32 %26 to i64
  %35 = getelementptr inbounds i8, ptr %33, i64 %34
  store i8 %32, ptr %35, align 1, !tbaa !4
  %36 = add nuw nsw i64 %.018.i, 1
  %exitcond.not.i = icmp eq i64 %36, %21
  br i1 %exitcond.not.i, label %.loopexit.i, label %25, !llvm.loop !41

37:                                               ; preds = %25
  %38 = add nsw i32 %28, 1
  store i32 %38, ptr %22, align 4, !tbaa !23
  br label %.loopexit.i

.loopexit.i:                                      ; preds = %30, %37, %18
  %39 = getelementptr inbounds nuw i8, ptr %0, i64 32
  %40 = load i32, ptr %39, align 4, !tbaa !23
  %41 = getelementptr inbounds nuw i8, ptr %0, i64 16
  %42 = load i32, ptr %41, align 8, !tbaa !14
  %43 = icmp slt i32 %40, %42
  br i1 %43, label %44, label %_ZN4absl18debugging_internalL6AppendEPNS0_5StateEPKcm.exit

44:                                               ; preds = %.loopexit.i
  %45 = getelementptr inbounds nuw i8, ptr %0, i64 8
  %46 = load ptr, ptr %45, align 8, !tbaa !13
  %47 = sext i32 %40 to i64
  %48 = getelementptr inbounds i8, ptr %46, i64 %47
  store i8 0, ptr %48, align 1, !tbaa !4
  br label %_ZN4absl18debugging_internalL6AppendEPNS0_5StateEPKcm.exit

_ZN4absl18debugging_internalL6AppendEPNS0_5StateEPKcm.exit: ; preds = %44, %.loopexit.i, %2
  call void @llvm.lifetime.end.p0(i64 20, ptr nonnull %3) #14
  ret void
}